target datalayout = "e-m:e-p270:32:32-p271:32:32-p272:64:64-i64:64-i128:128-f80:128-n8:16:32:64-S128"
target triple = "x86_64-pc-linux-gnu"

; Function Attrs: mustprogress nounwind uwtable
define dso_local noundef i32 @_Z20unscaledOffsetOpcodej(i32 noundef %0) #0 {
  %2 = alloca i32, align 4
  %3 = alloca i32, align 4
  store i32 %0, ptr %3, align 4
  %4 = load i32, ptr %3, align 4
  switch i32 %4, label %5 [
    i32 4554, label %6
    i32 6810, label %6
    i32 4551, label %6
    i32 6807, label %6
    i32 4562, label %6
    i32 6813, label %6
    i32 4561, label %6
    i32 4559, label %6
    i32 6812, label %6
    i32 4553, label %6
    i32 6809, label %6
    i32 4552, label %6
    i32 6808, label %6
    i32 4558, label %6
    i32 4557, label %6
    i32 4550, label %6
    i32 6806, label %6
    i32 4549, label %6
    i32 6805, label %6
    i32 4555, label %6
    i32 4556, label %6
    i32 4407, label %8
    i32 6781, label %9
    i32 4391, label %10
    i32 6766, label %11
    i32 4451, label %12
    i32 6796, label %13
    i32 4445, label %14
    i32 4433, label %15
    i32 6791, label %16
    i32 4401, label %17
    i32 6776, label %18
    i32 4396, label %19
    i32 6771, label %20
    i32 4427, label %21
    i32 4422, label %22
    i32 4380, label %23
    i32 4385, label %24
    i32 6756, label %25
    i32 6761, label %26
    i32 4412, label %27
    i32 4417, label %28
  ]

5:                                                ; preds = %1
  unreachable

6:                                                ; preds = %1, %1, %1, %1, %1, %1, %1, %1, %1, %1, %1, %1, %1, %1, %1, %1, %1, %1, %1, %1, %1
  %7 = load i32, ptr %3, align 4
  store i32 %7, ptr %2, align 4
  br label %29

8:                                                ; preds = %1
  store i32 4554, ptr %2, align 4
  br label %29

9:                                                ; preds = %1
  store i32 6810, ptr %2, align 4
  br label %29

10:                                               ; preds = %1
  store i32 4551, ptr %2, align 4
  br label %29

11:                                               ; preds = %1
  store i32 6807, ptr %2, align 4
  br label %29

12:                                               ; preds = %1
  store i32 4562, ptr %2, align 4
  br label %29

13:                                               ; preds = %1
  store i32 6813, ptr %2, align 4
  br label %29

14:                                               ; preds = %1
  store i32 4561, ptr %2, align 4
  br label %29

15:                                               ; preds = %1
  store i32 4559, ptr %2, align 4
  br label %29

16:                                               ; preds = %1
  store i32 6812, ptr %2, align 4
  br label %29

17:                                               ; preds = %1
  store i32 4553, ptr %2, align 4
  br label %29

18:                                               ; preds = %1
  store i32 6809, ptr %2, align 4
  br label %29

19:                                               ; preds = %1
  store i32 4552, ptr %2, align 4
  br label %29

20:                                               ; preds = %1
  store i32 6808, ptr %2, align 4
  br label %29

21:                                               ; preds = %1
  store i32 4558, ptr %2, align 4
  br label %29

22:                                               ; preds = %1
  store i32 4557, ptr %2, align 4
  br label %29

23:                                               ; preds = %1
  store i32 4549, ptr %2, align 4
  br label %29

24:                                               ; preds = %1
  store i32 4550, ptr %2, align 4
  br label %29

25:                                               ; preds = %1
  store i32 6805, ptr %2, align 4
  br label %29

26:                                               ; preds = %1
  store i32 6806, ptr %2, align 4
  br label %29

27:                                               ; preds = %1
  store i32 4555, ptr %2, align 4
  br label %29

28:                                               ; preds = %1
  store i32 4556, ptr %2, align 4
  br label %29

29:                                               ; preds = %28, %27, %26, %25, %24, %23, %22, %21, %20, %19, %18, %17, %16, %15, %14, %13, %12, %11, %10, %9, %8, %6
  %30 = load i32, ptr %2, align 4
  ret i32 %30
}