; Function Attrs: mustprogress nofree norecurse nosync nounwind willreturn memory(none) uwtable
define dso_local noundef i32 @_Z20unscaledOffsetOpcodej(i32 noundef %0) local_unnamed_addr #7 {
  switch i32 %0, label %2 [
    i32 4554, label %24
    i32 6810, label %24
    i32 4551, label %24
    i32 6807, label %24
    i32 4562, label %24
    i32 6813, label %24
    i32 4561, label %24
    i32 4559, label %24
    i32 6812, label %24
    i32 4553, label %24
    i32 6809, label %24
    i32 4552, label %24
    i32 6808, label %24
    i32 4558, label %24
    i32 4557, label %24
    i32 4550, label %24
    i32 6806, label %24
    i32 4549, label %24
    i32 6805, label %24
    i32 4555, label %24
    i32 4556, label %24
    i32 4407, label %3
    i32 6781, label %4
    i32 4391, label %5
    i32 6766, label %6
    i32 4451, label %7
    i32 6796, label %8
    i32 4445, label %9
    i32 4433, label %10
    i32 6791, label %11
    i32 4401, label %12
    i32 6776, label %13
    i32 4396, label %14
    i32 6771, label %15
    i32 4427, label %16
    i32 4422, label %17
    i32 4380, label %18
    i32 4385, label %19
    i32 6756, label %20
    i32 6761, label %21
    i32 4412, label %22
    i32 4417, label %23
  ]

2:                                                ; preds = %1
  unreachable

3:                                                ; preds = %1
  br label %24

4:                                                ; preds = %1
  br label %24

5:                                                ; preds = %1
  br label %24

6:                                                ; preds = %1
  br label %24

7:                                                ; preds = %1
  br label %24

8:                                                ; preds = %1
  br label %24

9:                                                ; preds = %1
  br label %24

10:                                               ; preds = %1
  br label %24

11:                                               ; preds = %1
  br label %24

12:                                               ; preds = %1
  br label %24

13:                                               ; preds = %1
  br label %24

14:                                               ; preds = %1
  br label %24

15:                                               ; preds = %1
  br label %24

16:                                               ; preds = %1
  br label %24

17:                                               ; preds = %1
  br label %24

18:                                               ; preds = %1
  br label %24

19:                                               ; preds = %1
  br label %24

20:                                               ; preds = %1
  br label %24

21:                                               ; preds = %1
  br label %24

22:                                               ; preds = %1
  br label %24

23:                                               ; preds = %1
  br label %24

24:                                               ; preds = %1, %1, %1, %1, %1, %1, %1, %1, %1, %1, %1, %1, %1, %1, %1, %1, %1, %1, %1, %1, %1, %23, %22, %21, %20, %19, %18, %17, %16, %15, %14, %13, %12, %11, %10, %9, %8, %7, %6, %5, %4, %3
  %.0 = phi i32 [ 4556, %23 ], [ 4555, %22 ], [ 6806, %21 ], [ 6805, %20 ], [ 4550, %19 ], [ 4549, %18 ], [ 4557, %17 ], [ 4558, %16 ], [ 6808, %15 ], [ 4552, %14 ], [ 6809, %13 ], [ 4553, %12 ], [ 6812, %11 ], [ 4559, %10 ], [ 4561, %9 ], [ 6813, %8 ], [ 4562, %7 ], [ 6807, %6 ], [ 4551, %5 ], [ 6810, %4 ], [ 4554, %3 ], [ %0, %1 ], [ %0, %1 ], [ %0, %1 ], [ %0, %1 ], [ %0, %1 ], [ %0, %1 ], [ %0, %1 ], [ %0, %1 ], [ %0, %1 ], [ %0, %1 ], [ %0, %1 ], [ %0, %1 ], [ %0, %1 ], [ %0, %1 ], [ %0, %1 ], [ %0, %1 ], [ %0, %1 ], [ %0, %1 ], [ %0, %1 ], [ %0, %1 ], [ %0, %1 ]
  ret i32 %.0
}